target datalayout = "e-m:e-p270:32:32-p271:32:32-p272:64:64-i64:64-i128:128-f80:128-n8:16:32:64-S128"
target triple = "x86_64-pc-linux-gnu"

@.str.31 = private unnamed_addr constant [36 x i8] c"Skipping scan for %s (in LocalNet)\0A\00", align 1
@.str.32 = private unnamed_addr constant [10 x i8] c"localhost\00", align 1
@.str.33 = private unnamed_addr constant [6 x i8] c"local\00", align 1

; Function Attrs: nounwind uwtable
define dso_local i32 @clamfi_connect(ptr noundef %0, ptr noundef %1, ptr noundef %2) #0 {
  %4 = alloca i32, align 4
  %5 = alloca ptr, align 8
  %6 = alloca ptr, align 8
  %7 = alloca ptr, align 8
  store ptr %0, ptr %5, align 8
  store ptr %1, ptr %6, align 8
  store ptr %2, ptr %7, align 8
  br label %8

8:                                                ; preds = %3
  %9 = load ptr, ptr %7, align 8
  %10 = icmp ne ptr %9, null
  br i1 %10, label %11, label %19

11:                                               ; preds = %8
  %12 = load ptr, ptr %7, align 8
  %13 = call i32 @islocalnet_sock(ptr noundef %12)
  %14 = icmp ne i32 %13, 0
  br i1 %14, label %15, label %18

15:                                               ; preds = %11
  %16 = load ptr, ptr %6, align 8
  %17 = call i32 (i32, ptr, ...) @logg(i32 noundef 2, ptr noundef @.str.31, ptr noundef %16)
  store i32 3, ptr %4, align 4
  br label %39

18:                                               ; preds = %11
  br label %38

19:                                               ; preds = %8
  %20 = load ptr, ptr %6, align 8
  %21 = call i32 @strcasecmp(ptr noundef %20, ptr noundef @.str.32) #10
  %22 = icmp ne i32 %21, 0
  br i1 %22, label %24, label %23

23:                                               ; preds = %19
  store ptr null, ptr %6, align 8
  br label %24

24:                                               ; preds = %23, %19
  %25 = load ptr, ptr %6, align 8
  %26 = call i32 @islocalnet_name(ptr noundef %25)
  %27 = icmp ne i32 %26, 0
  br i1 %27, label %28, label %37

28:                                               ; preds = %24
  %29 = load ptr, ptr %6, align 8
  %30 = icmp ne ptr %29, null
  br i1 %30, label %31, label %33

31:                                               ; preds = %28
  %32 = load ptr, ptr %6, align 8
  br label %34

33:                                               ; preds = %28
  br label %34

34:                                               ; preds = %33, %31
  %35 = phi ptr [ %32, %31 ], [ @.str.33, %33 ]
  %36 = call i32 (i32, ptr, ...) @logg(i32 noundef 2, ptr noundef @.str.31, ptr noundef %35)
  store i32 3, ptr %4, align 4
  br label %39

37:                                               ; preds = %24
  br label %38

38:                                               ; preds = %37, %18
  store i32 0, ptr %4, align 4
  br label %39

39:                                               ; preds = %38, %34, %15
  %40 = load i32, ptr %4, align 4
  ret i32 %40
}